target datalayout = "e-m:e-p270:32:32-p271:32:32-p272:64:64-i64:64-i128:128-f80:128-n8:16:32:64-S128"
target triple = "x86_64-pc-linux-gnu"

%struct.bf_key_st = type { [18 x i32], [1024 x i32] }

@bf_key = internal global [2 x [30 x i8]] [[30 x i8] c"abcdefghijklmnopqrstuvwxyz\00\00\00\00", [30 x i8] c"Who is John Galt?\00\00\00\00\00\00\00\00\00\00\00\00\00"], align 16
@bf_plain = internal global [2 x [2 x i32]] [[2 x i32] [i32 1112297303, i32 1179210568], [2 x i32] [i32 -19088744, i32 1985229328]], align 16
@.str.40 = private unnamed_addr constant [25 x i8] c"../openssl/test/bftest.c\00", align 1
@.str.41 = private unnamed_addr constant [19 x i8] c"&(bf_cipher[n][0])\00", align 1
@.str.42 = private unnamed_addr constant [11 x i8] c"&(data[0])\00", align 1
@bf_cipher = internal global [2 x [2 x i32]] [[2 x i32] [i32 844026110, i32 -200039933], [2 x i32] [i32 -862883029, i32 -2145192316]], align 16
@.str.43 = private unnamed_addr constant [18 x i8] c"&(bf_plain[n][0])\00", align 1

; Function Attrs: nounwind uwtable
define internal i32 @test_bf_ecb_raw(i32 noundef %0) #0 {
  %2 = alloca i32, align 4
  %3 = alloca i32, align 4
  %4 = alloca %struct.bf_key_st, align 4
  %5 = alloca [2 x i32], align 4
  store i32 %0, ptr %2, align 4, !tbaa !4
  call void @llvm.lifetime.start.p0(i64 4, ptr %3) #6
  store i32 1, ptr %3, align 4, !tbaa !4
  call void @llvm.lifetime.start.p0(i64 4168, ptr %4) #6
  call void @llvm.lifetime.start.p0(i64 8, ptr %5) #6
  %6 = load i32, ptr %2, align 4, !tbaa !4
  %7 = sext i32 %6 to i64
  %8 = getelementptr inbounds [2 x [30 x i8]], ptr @bf_key, i64 0, i64 %7
  %9 = getelementptr inbounds [30 x i8], ptr %8, i64 0, i64 0
  %10 = call i64 @strlen(ptr noundef %9) #7
  %11 = trunc i64 %10 to i32
  %12 = load i32, ptr %2, align 4, !tbaa !4
  %13 = sext i32 %12 to i64
  %14 = getelementptr inbounds [2 x [30 x i8]], ptr @bf_key, i64 0, i64 %13
  %15 = getelementptr inbounds [30 x i8], ptr %14, i64 0, i64 0
  call void @BF_set_key(ptr noundef %4, i32 noundef %11, ptr noundef %15)
  %16 = load i32, ptr %2, align 4, !tbaa !4
  %17 = sext i32 %16 to i64
  %18 = getelementptr inbounds [2 x [2 x i32]], ptr @bf_plain, i64 0, i64 %17
  %19 = getelementptr inbounds [2 x i32], ptr %18, i64 0, i64 0
  %20 = load i32, ptr %19, align 8, !tbaa !4
  %21 = getelementptr inbounds [2 x i32], ptr %5, i64 0, i64 0
  store i32 %20, ptr %21, align 4, !tbaa !4
  %22 = load i32, ptr %2, align 4, !tbaa !4
  %23 = sext i32 %22 to i64
  %24 = getelementptr inbounds [2 x [2 x i32]], ptr @bf_plain, i64 0, i64 %23
  %25 = getelementptr inbounds [2 x i32], ptr %24, i64 0, i64 1
  %26 = load i32, ptr %25, align 4, !tbaa !4
  %27 = getelementptr inbounds [2 x i32], ptr %5, i64 0, i64 1
  store i32 %26, ptr %27, align 4, !tbaa !4
  %28 = getelementptr inbounds [2 x i32], ptr %5, i64 0, i64 0
  call void @BF_encrypt(ptr noundef %28, ptr noundef %4)
  %29 = load i32, ptr %2, align 4, !tbaa !4
  %30 = sext i32 %29 to i64
  %31 = getelementptr inbounds [2 x [2 x i32]], ptr @bf_cipher, i64 0, i64 %30
  %32 = getelementptr inbounds [2 x i32], ptr %31, i64 0, i64 0
  %33 = getelementptr inbounds [2 x i32], ptr %5, i64 0, i64 0
  %34 = call i32 @test_mem_eq(ptr noundef @.str.40, i32 noundef 306, ptr noundef @.str.41, ptr noundef @.str.42, ptr noundef %32, i64 noundef 8, ptr noundef %33, i64 noundef 8)
  %35 = icmp ne i32 %34, 0
  br i1 %35, label %37, label %36

36:                                               ; preds = %1
  store i32 0, ptr %3, align 4, !tbaa !4
  br label %37

37:                                               ; preds = %36, %1
  %38 = getelementptr inbounds [2 x i32], ptr %5, i64 0, i64 0
  call void @BF_decrypt(ptr noundef %38, ptr noundef %4)
  %39 = load i32, ptr %2, align 4, !tbaa !4
  %40 = sext i32 %39 to i64
  %41 = getelementptr inbounds [2 x [2 x i32]], ptr @bf_plain, i64 0, i64 %40
  %42 = getelementptr inbounds [2 x i32], ptr %41, i64 0, i64 0
  %43 = getelementptr inbounds [2 x i32], ptr %5, i64 0, i64 0
  %44 = call i32 @test_mem_eq(ptr noundef @.str.40, i32 noundef 310, ptr noundef @.str.43, ptr noundef @.str.42, ptr noundef %42, i64 noundef 8, ptr noundef %43, i64 noundef 8)
  %45 = icmp ne i32 %44, 0
  br i1 %45, label %47, label %46

46:                                               ; preds = %37
  store i32 0, ptr %3, align 4, !tbaa !4
  br label %47

47:                                               ; preds = %46, %37
  %48 = load i32, ptr %3, align 4, !tbaa !4
  call void @llvm.lifetime.end.p0(i64 8, ptr %5) #6
  call void @llvm.lifetime.end.p0(i64 4168, ptr %4) #6
  call void @llvm.lifetime.end.p0(i64 4, ptr %3) #6
  ret i32 %48
}